; Function Attrs: mustprogress uwtable
define void @_ZN5arrow3mapESt10shared_ptrINS_8DataTypeEES2_b(ptr dead_on_unwind noalias writable writeonly sret(%"class.std::shared_ptr") align 8 captures(none) initializes((0, 16)) %0, ptr noundef nonnull %1, ptr noundef nonnull %2, i1 noundef zeroext %3) local_unnamed_addr #1 personality ptr @__gxx_personality_v0 {
_ZNSt12__shared_ptrIN5arrow7MapTypeELN9__gnu_cxx12_Lock_policyE2EED2Ev.exit:
  %4 = alloca %"class.std::allocator.565", align 1
  %5 = alloca i8, align 1
  %6 = alloca %"class.std::shared_ptr.55", align 8
  %7 = zext i1 %3 to i8
  store i8 %7, ptr %5, align 1, !tbaa !585
  call void @llvm.lifetime.start.p0(i64 16, ptr nonnull %6) #38
  call void @llvm.lifetime.start.p0(i64 1, ptr nonnull %4) #38, !noalias !2187
  call void @_ZNSt12__shared_ptrIN5arrow7MapTypeELN9__gnu_cxx12_Lock_policyE2EEC2ISaIvEJSt10shared_ptrINS0_8DataTypeEES9_RbEEESt20_Sp_alloc_shared_tagIT_EDpOT0_(ptr noundef nonnull align 8 dereferenceable(16) %6, ptr nonnull %4, ptr noundef nonnull align 8 dereferenceable(16) %1, ptr noundef nonnull align 8 dereferenceable(16) %2, ptr noundef nonnull align 1 dereferenceable(1) %5)
  call void @llvm.lifetime.end.p0(i64 1, ptr nonnull %4) #38, !noalias !2187
  %8 = load ptr, ptr %6, align 8, !tbaa !812
  store ptr %8, ptr %0, align 8, !tbaa !333
  %9 = getelementptr inbounds nuw i8, ptr %0, i64 8
  %10 = getelementptr inbounds nuw i8, ptr %6, i64 8
  %11 = load ptr, ptr %10, align 8, !tbaa !352
  store ptr %11, ptr %9, align 8, !tbaa !352
  call void @llvm.lifetime.end.p0(i64 16, ptr nonnull %6) #38
  ret void
}